; Function Attrs: mustprogress nofree norecurse nosync nounwind willreturn memory(read, inaccessiblemem: none) uwtable
define noundef i64 @_ZN10open_spiel9GetActionERKSt6vectorISt4pairIldESaIS2_EE(ptr nocapture noundef nonnull readonly align 8 dereferenceable(24) %0) local_unnamed_addr #4 {
  %2 = load ptr, ptr %0, align 8
  %3 = getelementptr inbounds nuw i8, ptr %0, i64 8
  %4 = load ptr, ptr %3, align 8
  %.not9 = icmp eq ptr %2, %4
  br i1 %.not9, label %.loopexit, label %.lr.ph

.lr.ph:                                           ; preds = %1, %10
  %.sroa.05.010 = phi ptr [ %11, %10 ], [ %2, %1 ]
  %5 = getelementptr inbounds nuw i8, ptr %.sroa.05.010, i64 8
  %6 = load double, ptr %5, align 8
  %7 = fcmp oeq double %6, 1.000000e+00
  br i1 %7, label %8, label %10

8:                                                ; preds = %.lr.ph
  %9 = load i64, ptr %.sroa.05.010, align 8
  br label %.loopexit

10:                                               ; preds = %.lr.ph
  %11 = getelementptr inbounds i8, ptr %.sroa.05.010, i64 16
  %.not = icmp eq ptr %11, %4
  br i1 %.not, label %.loopexit, label %.lr.ph

.loopexit:                                        ; preds = %10, %1, %8
  %.0 = phi i64 [ %9, %8 ], [ -1, %1 ], [ -1, %10 ]
  ret i64 %.0
}